target datalayout = "e-m:e-p270:32:32-p271:32:32-p272:64:64-i64:64-i128:128-f80:128-n8:16:32:64-S128"
target triple = "x86_64-pc-linux-gnu"

@color_stdout_is_tty = dso_local global i32 -1, align 4
@.str.14 = private unnamed_addr constant [8 x i8] c"color.c\00", align 1
@want_color_fd.want_auto = internal global [3 x i32] [i32 -1, i32 -1, i32 -1], align 4
@.str.21 = private unnamed_addr constant [33 x i8] c"file descriptor out of range: %d\00", align 1
@git_use_color_default = internal global i32 2, align 4
@check_auto_color.color_stderr_is_tty = internal global i32 -1, align 4
@pager_use_color = external global i32, align 4

; Function Attrs: nounwind uwtable
define internal i32 @check_auto_color(i32 noundef %0) #0 {
  %2 = alloca i32, align 4
  %3 = alloca i32, align 4
  %4 = alloca ptr, align 8
  %5 = alloca i32, align 4
  store i32 %0, ptr %3, align 4, !tbaa !9
  call void @llvm.lifetime.start.p0(i64 8, ptr %4) #11
  %6 = load i32, ptr %3, align 4, !tbaa !9
  %7 = icmp eq i32 %6, 1
  %8 = select i1 %7, ptr @color_stdout_is_tty, ptr @check_auto_color.color_stderr_is_tty
  store ptr %8, ptr %4, align 8, !tbaa !35
  %9 = load ptr, ptr %4, align 8, !tbaa !35
  %10 = load i32, ptr %9, align 4, !tbaa !9
  %11 = icmp slt i32 %10, 0
  br i1 %11, label %12, label %16

12:                                               ; preds = %1
  %13 = load i32, ptr %3, align 4, !tbaa !9
  %14 = call i32 @isatty(i32 noundef %13) #11
  %15 = load ptr, ptr %4, align 8, !tbaa !35
  store i32 %14, ptr %15, align 4, !tbaa !9
  br label %16

16:                                               ; preds = %12, %1
  %17 = load ptr, ptr %4, align 8, !tbaa !35
  %18 = load i32, ptr %17, align 4, !tbaa !9
  %19 = icmp ne i32 %18, 0
  br i1 %19, label %29, label %20

20:                                               ; preds = %16
  %21 = load i32, ptr %3, align 4, !tbaa !9
  %22 = icmp eq i32 %21, 1
  br i1 %22, label %23, label %34

23:                                               ; preds = %20
  %24 = call i32 @pager_in_use()
  %25 = icmp ne i32 %24, 0
  br i1 %25, label %26, label %34

26:                                               ; preds = %23
  %27 = load i32, ptr @pager_use_color, align 4, !tbaa !9
  %28 = icmp ne i32 %27, 0
  br i1 %28, label %29, label %34

29:                                               ; preds = %26, %16
  %30 = call i32 @is_terminal_dumb()
  %31 = icmp ne i32 %30, 0
  br i1 %31, label %33, label %32

32:                                               ; preds = %29
  store i32 1, ptr %2, align 4
  store i32 1, ptr %5, align 4
  br label %35

33:                                               ; preds = %29
  br label %34

34:                                               ; preds = %33, %26, %23, %20
  store i32 0, ptr %2, align 4
  store i32 1, ptr %5, align 4
  br label %35

35:                                               ; preds = %34, %32
  call void @llvm.lifetime.end.p0(i64 8, ptr %4) #11
  %36 = load i32, ptr %2, align 4
  ret i32 %36
}

; Function Attrs: nounwind uwtable
define dso_local i32 @want_color_fd(i32 noundef %0, i32 noundef %1) #0 {
  %3 = alloca i32, align 4
  %4 = alloca i32, align 4
  %5 = alloca i32, align 4
  store i32 %0, ptr %4, align 4, !tbaa !9
  store i32 %1, ptr %5, align 4, !tbaa !9
  %6 = load i32, ptr %4, align 4, !tbaa !9
  %7 = icmp slt i32 %6, 1
  br i1 %7, label %12, label %8

8:                                                ; preds = %2
  %9 = load i32, ptr %4, align 4, !tbaa !9
  %10 = sext i32 %9 to i64
  %11 = icmp uge i64 %10, 3
  br i1 %11, label %12, label %14

12:                                               ; preds = %8, %2
  %13 = load i32, ptr %4, align 4, !tbaa !9
  call void (ptr, i32, ptr, ...) @BUG_fl(ptr noundef @.str.14, i32 noundef 419, ptr noundef @.str.21, i32 noundef %13) #12
  unreachable

14:                                               ; preds = %8
  %15 = load i32, ptr %5, align 4, !tbaa !9
  %16 = icmp slt i32 %15, 0
  br i1 %16, label %17, label %19

17:                                               ; preds = %14
  %18 = load i32, ptr @git_use_color_default, align 4, !tbaa !9
  store i32 %18, ptr %5, align 4, !tbaa !9
  br label %19

19:                                               ; preds = %17, %14
  %20 = load i32, ptr %5, align 4, !tbaa !9
  %21 = icmp eq i32 %20, 2
  br i1 %21, label %22, label %39

22:                                               ; preds = %19
  %23 = load i32, ptr %4, align 4, !tbaa !9
  %24 = sext i32 %23 to i64
  %25 = getelementptr inbounds [3 x i32], ptr @want_color_fd.want_auto, i64 0, i64 %24
  %26 = load i32, ptr %25, align 4, !tbaa !9
  %27 = icmp slt i32 %26, 0
  br i1 %27, label %28, label %34

28:                                               ; preds = %22
  %29 = load i32, ptr %4, align 4, !tbaa !9
  %30 = call i32 @check_auto_color(i32 noundef %29)
  %31 = load i32, ptr %4, align 4, !tbaa !9
  %32 = sext i32 %31 to i64
  %33 = getelementptr inbounds [3 x i32], ptr @want_color_fd.want_auto, i64 0, i64 %32
  store i32 %30, ptr %33, align 4, !tbaa !9
  br label %34

34:                                               ; preds = %28, %22
  %35 = load i32, ptr %4, align 4, !tbaa !9
  %36 = sext i32 %35 to i64
  %37 = getelementptr inbounds [3 x i32], ptr @want_color_fd.want_auto, i64 0, i64 %36
  %38 = load i32, ptr %37, align 4, !tbaa !9
  store i32 %38, ptr %3, align 4
  br label %41

39:                                               ; preds = %19
  %40 = load i32, ptr %5, align 4, !tbaa !9
  store i32 %40, ptr %3, align 4
  br label %41

41:                                               ; preds = %39, %34
  %42 = load i32, ptr %3, align 4
  ret i32 %42
}