; Function Attrs: nounwind uwtable
define dso_local i32 @want_color_fd(i32 noundef %0, i32 noundef %1) local_unnamed_addr #0 {
  %3 = sext i32 %0 to i64
  %4 = add i32 %0, -3
  %or.cond = icmp ult i32 %4, -2
  br i1 %or.cond, label %5, label %6

5:                                                ; preds = %2
  tail call void (ptr, i32, ptr, ...) @BUG_fl(ptr noundef nonnull @.str.14, i32 noundef 419, ptr noundef nonnull @.str.21, i32 noundef %0) #16
  unreachable

6:                                                ; preds = %2
  %7 = icmp slt i32 %1, 0
  %8 = load i32, ptr @git_use_color_default, align 4
  %spec.select = select i1 %7, i32 %8, i32 %1
  %9 = icmp eq i32 %spec.select, 2
  br i1 %9, label %10, label %32

10:                                               ; preds = %6
  %11 = getelementptr inbounds nuw [3 x i32], ptr @want_color_fd.want_auto, i64 0, i64 %3
  %12 = load i32, ptr %11, align 4, !tbaa !22
  %13 = icmp slt i32 %12, 0
  br i1 %13, label %14, label %32

14:                                               ; preds = %10
  %15 = icmp eq i32 %0, 1
  %16 = select i1 %15, ptr @color_stdout_is_tty, ptr @check_auto_color.color_stderr_is_tty
  %17 = load i32, ptr %16, align 4, !tbaa !22
  %18 = icmp slt i32 %17, 0
  br i1 %18, label %19, label %21

19:                                               ; preds = %14
  %20 = tail call i32 @isatty(i32 noundef range(i32 1, -2147483648) %0) #15
  store i32 %20, ptr %16, align 4, !tbaa !22
  br label %21

21:                                               ; preds = %19, %14
  %22 = phi i32 [ %20, %19 ], [ %17, %14 ]
  %.not.i = icmp eq i32 %22, 0
  br i1 %.not.i, label %23, label %29

23:                                               ; preds = %21
  br i1 %15, label %24, label %31

24:                                               ; preds = %23
  %25 = tail call i32 @pager_in_use() #15
  %26 = icmp ne i32 %25, 0
  %27 = load i32, ptr @pager_use_color, align 4
  %28 = icmp ne i32 %27, 0
  %or.cond.i = select i1 %26, i1 %28, i1 false
  br i1 %or.cond.i, label %29, label %31

29:                                               ; preds = %24, %21
  %30 = tail call i32 @is_terminal_dumb() #15
  %.not7.i = icmp eq i32 %30, 0
  br i1 %.not7.i, label %check_auto_color.exit, label %31

31:                                               ; preds = %29, %24, %23
  br label %check_auto_color.exit

check_auto_color.exit:                            ; preds = %29, %31
  %.0.i = phi i32 [ 0, %31 ], [ 1, %29 ]
  store i32 %.0.i, ptr %11, align 4, !tbaa !22
  br label %32

32:                                               ; preds = %10, %check_auto_color.exit, %6
  %.013 = phi i32 [ %spec.select, %6 ], [ %.0.i, %check_auto_color.exit ], [ %12, %10 ]
  ret i32 %.013
}